; Function Attrs: nounwind uwtable
define ptr @Saig_ManDupIsoCanonical(ptr noundef %0, i32 noundef %1) local_unnamed_addr #0 {
  %3 = tail call ptr @Saig_ManFindIsoPerm(ptr noundef %0, i32 noundef %1) #24
  %4 = tail call ptr @Saig_ManFindIsoPermCos(ptr noundef %0, ptr noundef %3)
  %5 = getelementptr i8, ptr %0, i64 148
  %.val51 = load i32, ptr %5, align 4, !tbaa !3
  %6 = getelementptr i8, ptr %0, i64 152
  %.val52 = load i32, ptr %6, align 8, !tbaa !3
  %7 = add nsw i32 %.val52, %.val51
  %8 = tail call ptr @Aig_ManStart(i32 noundef %7) #24
  %9 = load ptr, ptr %0, align 8, !tbaa !43
  %.not.i = icmp eq ptr %9, null
  br i1 %.not.i, label %Abc_UtilStrsav.exit, label %10

10:                                               ; preds = %2
  %11 = tail call i64 @strlen(ptr noundef nonnull readonly dereferenceable(1) %9) #25
  %12 = add i64 %11, 1
  %13 = tail call noalias ptr @malloc(i64 noundef %12) #22
  %14 = tail call ptr @strcpy(ptr noundef nonnull dereferenceable(1) %13, ptr noundef nonnull readonly dereferenceable(1) %9) #24
  br label %Abc_UtilStrsav.exit

Abc_UtilStrsav.exit:                              ; preds = %2, %10
  %15 = phi ptr [ %13, %10 ], [ null, %2 ]
  store ptr %15, ptr %8, align 8, !tbaa !43
  tail call void @Aig_ManIncrementTravId(ptr noundef nonnull %0) #24
  %16 = getelementptr i8, ptr %0, i64 48
  %.val53 = load ptr, ptr %16, align 8, !tbaa !44
  %17 = getelementptr i8, ptr %8, i64 48
  %.val54 = load ptr, ptr %17, align 8, !tbaa !44
  %18 = getelementptr inbounds nuw i8, ptr %.val53, i64 40
  store ptr %.val54, ptr %18, align 8, !tbaa !33
  %19 = getelementptr i8, ptr %0, i64 312
  %.val49 = load i32, ptr %19, align 8, !tbaa !39
  %20 = getelementptr inbounds nuw i8, ptr %.val53, i64 32
  store i32 %.val49, ptr %20, align 8, !tbaa !40
  %21 = getelementptr i8, ptr %3, i64 4
  %.val4473 = load i32, ptr %21, align 4, !tbaa !7
  %22 = icmp sgt i32 %.val4473, 0
  br i1 %22, label %.lr.ph, label %.critedge.preheader

.lr.ph:                                           ; preds = %Abc_UtilStrsav.exit
  %23 = getelementptr i8, ptr %3, i64 8
  %24 = getelementptr i8, ptr %0, i64 16
  br label %30

.critedge.preheader:                              ; preds = %30, %Abc_UtilStrsav.exit
  %25 = getelementptr i8, ptr %4, i64 4
  %.val43 = load i32, ptr %25, align 4, !tbaa !7
  %26 = icmp sgt i32 %.val43, 0
  br i1 %26, label %.lr.ph76, label %.critedge4.thread

.critedge4.thread:                                ; preds = %.critedge.preheader
  %27 = getelementptr i8, ptr %0, i64 104
  %.val5888 = load i32, ptr %27, align 8, !tbaa !45
  tail call void @Aig_ManSetRegNum(ptr noundef nonnull %8, i32 noundef %.val5888) #24
  br label %76

.lr.ph76:                                         ; preds = %.critedge.preheader
  %28 = getelementptr i8, ptr %4, i64 8
  %.val46 = load ptr, ptr %28, align 8, !tbaa !12
  %29 = getelementptr i8, ptr %0, i64 24
  %wide.trip.count = zext nneg i32 %.val43 to i64
  br label %.critedge

30:                                               ; preds = %.lr.ph, %30
  %indvars.iv = phi i64 [ 0, %.lr.ph ], [ %indvars.iv.next, %30 ]
  %.val47 = load ptr, ptr %23, align 8, !tbaa !12
  %31 = getelementptr inbounds nuw i32, ptr %.val47, i64 %indvars.iv
  %32 = load i32, ptr %31, align 4, !tbaa !3
  %.val55 = load ptr, ptr %24, align 8, !tbaa !46
  %33 = getelementptr i8, ptr %.val55, i64 8
  %.val55.val = load ptr, ptr %33, align 8, !tbaa !29
  %34 = sext i32 %32 to i64
  %35 = getelementptr inbounds ptr, ptr %.val55.val, i64 %34
  %36 = load ptr, ptr %35, align 8, !tbaa !31
  %37 = tail call ptr @Aig_ObjCreateCi(ptr noundef nonnull %8) #24
  %38 = getelementptr inbounds nuw i8, ptr %36, i64 40
  store ptr %37, ptr %38, align 8, !tbaa !33
  %.val48 = load i32, ptr %19, align 8, !tbaa !39
  %39 = getelementptr inbounds nuw i8, ptr %36, i64 32
  store i32 %.val48, ptr %39, align 8, !tbaa !40
  %indvars.iv.next = add nuw nsw i64 %indvars.iv, 1
  %.val44 = load i32, ptr %21, align 4, !tbaa !7
  %40 = sext i32 %.val44 to i64
  %41 = icmp slt i64 %indvars.iv.next, %40
  br i1 %41, label %30, label %.critedge.preheader, !llvm.loop !47

.lr.ph78:                                         ; preds = %.critedge
  %42 = getelementptr i8, ptr %4, i64 8
  %.val45 = load ptr, ptr %42, align 8, !tbaa !12
  %43 = getelementptr i8, ptr %0, i64 24
  %wide.trip.count86 = zext nneg i32 %.val43 to i64
  br label %54

.critedge:                                        ; preds = %.lr.ph76, %.critedge
  %indvars.iv80 = phi i64 [ 0, %.lr.ph76 ], [ %indvars.iv.next81, %.critedge ]
  %44 = getelementptr inbounds nuw i32, ptr %.val46, i64 %indvars.iv80
  %45 = load i32, ptr %44, align 4, !tbaa !3
  %.val56 = load ptr, ptr %29, align 8, !tbaa !30
  %46 = getelementptr i8, ptr %.val56, i64 8
  %.val56.val = load ptr, ptr %46, align 8, !tbaa !29
  %47 = sext i32 %45 to i64
  %48 = getelementptr inbounds ptr, ptr %.val56.val, i64 %47
  %49 = load ptr, ptr %48, align 8, !tbaa !31
  %50 = getelementptr i8, ptr %49, i64 8
  %.val = load ptr, ptr %50, align 8, !tbaa !32
  %51 = ptrtoint ptr %.val to i64
  %52 = and i64 %51, -2
  %53 = inttoptr i64 %52 to ptr
  tail call void @Saig_ManDupIsoCanonical_rec(ptr noundef nonnull %8, ptr noundef nonnull %0, ptr noundef %53)
  %indvars.iv.next81 = add nuw nsw i64 %indvars.iv80, 1
  %exitcond.not = icmp eq i64 %indvars.iv.next81, %wide.trip.count
  br i1 %exitcond.not, label %.lr.ph78, label %.critedge, !llvm.loop !48

54:                                               ; preds = %.lr.ph78, %Aig_ObjChild0Copy.exit
  %indvars.iv83 = phi i64 [ 0, %.lr.ph78 ], [ %indvars.iv.next84, %Aig_ObjChild0Copy.exit ]
  %55 = getelementptr inbounds nuw i32, ptr %.val45, i64 %indvars.iv83
  %56 = load i32, ptr %55, align 4, !tbaa !3
  %.val57 = load ptr, ptr %43, align 8, !tbaa !30
  %57 = getelementptr i8, ptr %.val57, i64 8
  %.val57.val = load ptr, ptr %57, align 8, !tbaa !29
  %58 = sext i32 %56 to i64
  %59 = getelementptr inbounds ptr, ptr %.val57.val, i64 %58
  %60 = load ptr, ptr %59, align 8, !tbaa !31
  %61 = getelementptr i8, ptr %60, i64 8
  %.val50 = load ptr, ptr %61, align 8, !tbaa !32
  %62 = ptrtoint ptr %.val50 to i64
  %63 = and i64 %62, -2
  %.not.i59 = icmp eq i64 %63, 0
  br i1 %.not.i59, label %Aig_ObjChild0Copy.exit, label %64

64:                                               ; preds = %54
  %65 = inttoptr i64 %63 to ptr
  %66 = getelementptr inbounds nuw i8, ptr %65, i64 40
  %67 = load ptr, ptr %66, align 8, !tbaa !33
  %68 = and i64 %62, 1
  %69 = ptrtoint ptr %67 to i64
  %70 = xor i64 %68, %69
  %71 = inttoptr i64 %70 to ptr
  br label %Aig_ObjChild0Copy.exit

Aig_ObjChild0Copy.exit:                           ; preds = %54, %64
  %72 = phi ptr [ %71, %64 ], [ null, %54 ]
  %73 = tail call ptr @Aig_ObjCreateCo(ptr noundef nonnull %8, ptr noundef %72) #24
  %indvars.iv.next84 = add nuw nsw i64 %indvars.iv83, 1
  %exitcond87.not = icmp eq i64 %indvars.iv.next84, %wide.trip.count86
  br i1 %exitcond87.not, label %.critedge4, label %54, !llvm.loop !49

.critedge4:                                       ; preds = %Aig_ObjChild0Copy.exit
  %74 = getelementptr i8, ptr %0, i64 104
  %.val58 = load i32, ptr %74, align 8, !tbaa !45
  tail call void @Aig_ManSetRegNum(ptr noundef nonnull %8, i32 noundef %.val58) #24
  %75 = icmp eq ptr %3, null
  br i1 %75, label %Vec_IntFreeP.exit, label %76

76:                                               ; preds = %.critedge4.thread, %.critedge4
  %77 = getelementptr inbounds nuw i8, ptr %3, i64 8
  %78 = load ptr, ptr %77, align 8, !tbaa !12
  %.not.i60 = icmp eq ptr %78, null
  br i1 %.not.i60, label %79, label %.thread.i

.thread.i:                                        ; preds = %76
  tail call void @free(ptr noundef nonnull %78) #24
  br label %79

79:                                               ; preds = %.thread.i, %76
  tail call void @free(ptr noundef nonnull %3) #24
  br label %Vec_IntFreeP.exit

Vec_IntFreeP.exit:                                ; preds = %79, %.critedge4
  %80 = getelementptr inbounds nuw i8, ptr %4, i64 8
  %81 = load ptr, ptr %80, align 8, !tbaa !12
  %.not.i61 = icmp eq ptr %81, null
  br i1 %.not.i61, label %Vec_IntFreeP.exit63, label %.thread.i62

.thread.i62:                                      ; preds = %Vec_IntFreeP.exit
  tail call void @free(ptr noundef nonnull %81) #24
  br label %Vec_IntFreeP.exit63

Vec_IntFreeP.exit63:                              ; preds = %Vec_IntFreeP.exit, %.thread.i62
  tail call void @free(ptr noundef nonnull %4) #24
  ret ptr %8
}